; Function Attrs: mustprogress uwtable
define dso_local void @_ZN4Json5ValueC2ENS_9ValueTypeE(ptr nocapture noundef nonnull align 8 dereferenceable(32) %0, i32 noundef %1) unnamed_addr #2 align 2 personality ptr @__gxx_personality_v0 {
  %3 = getelementptr inbounds i8, ptr %0, i64 8
  %4 = trunc i32 %1 to i16
  %5 = load i16, ptr %3, align 8
  %6 = and i16 %4, 255
  %7 = and i16 %5, -512
  %8 = or disjoint i16 %7, %6
  store i16 %8, ptr %3, align 8
  %9 = getelementptr inbounds i8, ptr %0, i64 16
  tail call void @llvm.memset.p0.i64(ptr noundef nonnull align 8 dereferenceable(16) %9, i8 0, i64 16, i1 false)
  switch i32 %1, label %20 [
    i32 5, label %19
    i32 1, label %10
    i32 2, label %10
    i32 3, label %11
    i32 4, label %12
    i32 6, label %13
    i32 7, label %13
  ]

10:                                               ; preds = %2, %2
  store i64 0, ptr %0, align 8
  br label %20

11:                                               ; preds = %2
  store double 0.000000e+00, ptr %0, align 8
  br label %20

12:                                               ; preds = %2
  store ptr null, ptr %0, align 8
  br label %20

13:                                               ; preds = %2, %2
  %14 = tail call noalias noundef nonnull dereferenceable(48) ptr @_Znwm(i64 noundef 48) #42
  %15 = getelementptr inbounds i8, ptr %14, i64 8
  %16 = getelementptr inbounds i8, ptr %14, i64 24
  tail call void @llvm.memset.p0.i64(ptr noundef nonnull align 16 dereferenceable(32) %14, i8 0, i64 32, i1 false)
  store ptr %15, ptr %16, align 8
  %17 = getelementptr inbounds i8, ptr %14, i64 32
  store ptr %15, ptr %17, align 8
  %18 = getelementptr inbounds i8, ptr %14, i64 40
  store i64 0, ptr %18, align 8
  store ptr %14, ptr %0, align 8
  br label %20

19:                                               ; preds = %2
  store i8 0, ptr %0, align 8
  br label %20

20:                                               ; preds = %2, %19, %13, %12, %11, %10
  ret void
}